target datalayout = "e-m:e-p270:32:32-p271:32:32-p272:64:64-i64:64-i128:128-f80:128-n8:16:32:64-S128"
target triple = "x86_64-pc-linux-gnu"

%class.LogTagSet = type { ptr, i64, [5 x i32], [4 x i8], %class.LogOutputList, %class.LogDecorators, ptr }
%class.LogOutputList = type <{ [6 x ptr], i32, [4 x i8] }>
%class.LogDecorators = type { i32 }
%class.NativeCallStack = type { [4 x ptr] }
%class.ThreadCritical = type { i8 }

@.str.71 = private unnamed_addr constant [45 x i8] c"Committed [0x%016lx - 0x%016lx), (%lu bytes)\00", align 1
@.str.72 = private unnamed_addr constant [52 x i8] c"Failed to commit [0x%016lx - 0x%016lx), (%lu bytes)\00", align 1
@_ZN16LogTagSetMappingILN6LogTag4typeE105ELS1_78ELS1_0ELS1_0ELS1_0ELS1_0EE7_tagsetE = linkonce_odr hidden global %class.LogTagSet zeroinitializer, comdat, align 8
@_ZN10MemTracker15_tracking_levelE = external global i32, align 4

; Function Attrs: mustprogress nounwind uwtable
define linkonce_odr hidden noundef zeroext i1 @_ZNK13LogOutputList8is_levelEN8LogLevel4typeE(ptr noundef nonnull align 8 dereferenceable(52) %0, i32 noundef %1) #1 comdat align 2 {
  %3 = alloca ptr, align 8
  %4 = alloca i32, align 4
  store ptr %0, ptr %3, align 8
  store i32 %1, ptr %4, align 4
  %5 = load ptr, ptr %3, align 8
  %6 = getelementptr inbounds %class.LogOutputList, ptr %5, i32 0, i32 0
  %7 = load i32, ptr %4, align 4
  %8 = zext i32 %7 to i64
  %9 = getelementptr inbounds [6 x ptr], ptr %6, i64 0, i64 %8
  %10 = load volatile ptr, ptr %9, align 8
  %11 = icmp ne ptr %10, null
  ret i1 %11
}

; Function Attrs: mustprogress nounwind uwtable
define linkonce_odr hidden noundef zeroext i1 @_ZNK9LogTagSet8is_levelEN8LogLevel4typeE(ptr noundef nonnull align 8 dereferenceable(112) %0, i32 noundef %1) #1 comdat align 2 {
  %3 = alloca ptr, align 8
  %4 = alloca i32, align 4
  store ptr %0, ptr %3, align 8
  store i32 %1, ptr %4, align 4
  %5 = load ptr, ptr %3, align 8
  %6 = getelementptr inbounds %class.LogTagSet, ptr %5, i32 0, i32 4
  %7 = load i32, ptr %4, align 4
  %8 = call noundef zeroext i1 @_ZNK13LogOutputList8is_levelEN8LogLevel4typeE(ptr noundef nonnull align 8 dereferenceable(52) %6, i32 noundef %7)
  ret i1 %8
}

; Function Attrs: mustprogress nounwind uwtable
define linkonce_odr hidden noundef nonnull align 8 dereferenceable(112) ptr @_ZN16LogTagSetMappingILN6LogTag4typeE105ELS1_78ELS1_0ELS1_0ELS1_0ELS1_0EE6tagsetEv() #1 comdat align 2 {
  ret ptr @_ZN16LogTagSetMappingILN6LogTag4typeE105ELS1_78ELS1_0ELS1_0ELS1_0ELS1_0EE7_tagsetE
}

; Function Attrs: mustprogress nounwind uwtable
define linkonce_odr hidden noundef zeroext i1 @_ZN10MemTracker7enabledEv() #1 comdat align 2 {
  %1 = load i32, ptr @_ZN10MemTracker15_tracking_levelE, align 4
  %2 = icmp sgt i32 %1, 1
  ret i1 %2
}

; Function Attrs: mustprogress nounwind uwtable
define linkonce_odr hidden void @_ZN10MemTracker16assert_post_initEv() #1 comdat align 2 {
  ret void
}

; Function Attrs: mustprogress nounwind uwtable
define linkonce_odr hidden noundef i64 @_Z3p2iPVKv(ptr noundef %0) #1 comdat {
  %2 = alloca ptr, align 8
  store ptr %0, ptr %2, align 8
  %3 = load ptr, ptr %2, align 8
  %4 = ptrtoint ptr %3 to i64
  ret i64 %4
}

; Function Attrs: mustprogress nounwind uwtable
define linkonce_odr hidden noundef zeroext i1 @_ZN7LogImplILN6LogTag4typeE105ELS1_78ELS1_0ELS1_0ELS1_0ELS1_0EE8is_levelEN8LogLevel4typeE(i32 noundef %0) #1 comdat align 2 {
  %2 = alloca i32, align 4
  store i32 %0, ptr %2, align 4
  %3 = call noundef nonnull align 8 dereferenceable(112) ptr @_ZN16LogTagSetMappingILN6LogTag4typeE105ELS1_78ELS1_0ELS1_0ELS1_0ELS1_0EE6tagsetEv()
  %4 = load i32, ptr %2, align 4
  %5 = call noundef zeroext i1 @_ZNK9LogTagSet8is_levelEN8LogLevel4typeE(ptr noundef nonnull align 8 dereferenceable(112) %3, i32 noundef %4)
  ret i1 %5
}

; Function Attrs: mustprogress nounwind uwtable
define linkonce_odr hidden void @_ZN10MemTracker28record_virtual_memory_commitEPvmRK15NativeCallStack(ptr noundef %0, i64 noundef %1, ptr noundef nonnull align 8 dereferenceable(32) %2) #1 comdat align 2 {
  %4 = alloca ptr, align 8
  %5 = alloca i64, align 8
  %6 = alloca ptr, align 8
  %7 = alloca %class.ThreadCritical, align 1
  store ptr %0, ptr %4, align 8
  store i64 %1, ptr %5, align 8
  store ptr %2, ptr %6, align 8
  call void @_ZN10MemTracker16assert_post_initEv()
  %8 = call noundef zeroext i1 @_ZN10MemTracker7enabledEv()
  br i1 %8, label %10, label %9

9:                                                ; preds = %3
  br label %18

10:                                               ; preds = %3
  %11 = load ptr, ptr %4, align 8
  %12 = icmp ne ptr %11, null
  br i1 %12, label %13, label %18

13:                                               ; preds = %10
  call void @_ZN14ThreadCriticalC1Ev(ptr noundef nonnull align 1 dereferenceable(1) %7)
  %14 = load ptr, ptr %4, align 8
  %15 = load i64, ptr %5, align 8
  %16 = load ptr, ptr %6, align 8
  %17 = call noundef zeroext i1 @_ZN20VirtualMemoryTracker20add_committed_regionEPhmRK15NativeCallStack(ptr noundef %14, i64 noundef %15, ptr noundef nonnull align 8 dereferenceable(32) %16)
  call void @_ZN14ThreadCriticalD1Ev(ptr noundef nonnull align 1 dereferenceable(1) %7) #13
  br label %18

18:                                               ; preds = %13, %10, %9
  ret void
}

; Function Attrs: mustprogress nounwind uwtable
define linkonce_odr hidden void @_ZN15NativeCallStackC2ENS_10FakeMarkerE(ptr noundef nonnull align 8 dereferenceable(32) %0, i32 noundef %1) unnamed_addr #1 comdat align 2 {
  %3 = alloca ptr, align 8
  %4 = alloca i32, align 4
  store ptr %0, ptr %3, align 8
  store i32 %1, ptr %4, align 4
  ret void
}

; Function Attrs: mustprogress nounwind uwtable
define linkonce_odr hidden noundef i32 @_ZN10MemTracker14tracking_levelEv() #1 comdat align 2 {
  %1 = load i32, ptr @_ZN10MemTracker15_tracking_levelE, align 4
  ret i32 %1
}

; Function Attrs: mustprogress nounwind uwtable
define internal void @_ZL21assert_nonempty_rangePKcm(ptr noundef %0, i64 noundef %1) #1 {
  %3 = alloca ptr, align 8
  %4 = alloca i64, align 8
  store ptr %0, ptr %3, align 8
  store i64 %1, ptr %4, align 8
  ret void
}

; Function Attrs: mustprogress nounwind uwtable
define hidden noundef zeroext i1 @_ZN2os13commit_memoryEPcmb(ptr noundef %0, i64 noundef %1, i1 noundef zeroext %2) #1 align 2 {
  %4 = alloca ptr, align 8
  %5 = alloca i64, align 8
  %6 = alloca i8, align 1
  %7 = alloca i8, align 1
  %8 = alloca %class.NativeCallStack, align 8
  store ptr %0, ptr %4, align 8
  store i64 %1, ptr %5, align 8
  %9 = zext i1 %2 to i8
  store i8 %9, ptr %6, align 1
  %10 = load ptr, ptr %4, align 8
  %11 = load i64, ptr %5, align 8
  call void @_ZL21assert_nonempty_rangePKcm(ptr noundef %10, i64 noundef %11)
  %12 = load ptr, ptr %4, align 8
  %13 = load i64, ptr %5, align 8
  %14 = load i8, ptr %6, align 1
  %15 = trunc i8 %14 to i1
  %16 = call noundef zeroext i1 @_ZN2os16pd_commit_memoryEPcmb(ptr noundef %12, i64 noundef %13, i1 noundef zeroext %15)
  %17 = zext i1 %16 to i8
  store i8 %17, ptr %7, align 1
  %18 = load i8, ptr %7, align 1
  %19 = trunc i8 %18 to i1
  br i1 %19, label %20, label %39

20:                                               ; preds = %3
  %21 = load ptr, ptr %4, align 8
  %22 = load i64, ptr %5, align 8
  %23 = call noundef i32 @_ZN10MemTracker14tracking_levelEv()
  %24 = icmp eq i32 %23, 3
  br i1 %24, label %25, label %26

25:                                               ; preds = %20
  call void @_ZN15NativeCallStackC1Ei(ptr noundef nonnull align 8 dereferenceable(32) %8, i32 noundef 1)
  br label %27

26:                                               ; preds = %20
  call void @_ZN15NativeCallStackC2ENS_10FakeMarkerE(ptr noundef nonnull align 8 dereferenceable(32) %8, i32 noundef 0)
  br label %27

27:                                               ; preds = %26, %25
  call void @_ZN10MemTracker28record_virtual_memory_commitEPvmRK15NativeCallStack(ptr noundef %21, i64 noundef %22, ptr noundef nonnull align 8 dereferenceable(32) %8)
  %28 = call noundef zeroext i1 @_ZN7LogImplILN6LogTag4typeE105ELS1_78ELS1_0ELS1_0ELS1_0ELS1_0EE8is_levelEN8LogLevel4typeE(i32 noundef 2)
  br i1 %28, label %30, label %29

29:                                               ; preds = %27
  br label %38

30:                                               ; preds = %27
  %31 = load ptr, ptr %4, align 8
  %32 = call noundef i64 @_Z3p2iPVKv(ptr noundef %31)
  %33 = load ptr, ptr %4, align 8
  %34 = load i64, ptr %5, align 8
  %35 = getelementptr inbounds i8, ptr %33, i64 %34
  %36 = call noundef i64 @_Z3p2iPVKv(ptr noundef %35)
  %37 = load i64, ptr %5, align 8
  call void (ptr, ...) @_ZN7LogImplILN6LogTag4typeE105ELS1_78ELS1_0ELS1_0ELS1_0ELS1_0EE5writeILN8LogLevel4typeE2EEEvPKcz(ptr noundef @.str.71, i64 noundef %32, i64 noundef %36, i64 noundef %37)
  br label %38

38:                                               ; preds = %30, %29
  br label %51

39:                                               ; preds = %3
  %40 = call noundef zeroext i1 @_ZN7LogImplILN6LogTag4typeE105ELS1_78ELS1_0ELS1_0ELS1_0ELS1_0EE8is_levelEN8LogLevel4typeE(i32 noundef 3)
  br i1 %40, label %42, label %41

41:                                               ; preds = %39
  br label %50

42:                                               ; preds = %39
  %43 = load ptr, ptr %4, align 8
  %44 = call noundef i64 @_Z3p2iPVKv(ptr noundef %43)
  %45 = load ptr, ptr %4, align 8
  %46 = load i64, ptr %5, align 8
  %47 = getelementptr inbounds i8, ptr %45, i64 %46
  %48 = call noundef i64 @_Z3p2iPVKv(ptr noundef %47)
  %49 = load i64, ptr %5, align 8
  call void (ptr, ...) @_ZN7LogImplILN6LogTag4typeE105ELS1_78ELS1_0ELS1_0ELS1_0ELS1_0EE5writeILN8LogLevel4typeE3EEEvPKcz(ptr noundef @.str.72, i64 noundef %44, i64 noundef %48, i64 noundef %49)
  br label %50

50:                                               ; preds = %42, %41
  br label %51

51:                                               ; preds = %50, %38
  %52 = load i8, ptr %7, align 1
  %53 = trunc i8 %52 to i1
  ret i1 %53
}