; Function Attrs: mustprogress nounwind uwtable
define hidden noundef zeroext i1 @_ZN2os13commit_memoryEPcmb(ptr noundef %0, i64 noundef %1, i1 noundef zeroext %2) local_unnamed_addr #3 align 2 {
  %4 = alloca %class.ThreadCritical, align 1
  %5 = alloca %class.NativeCallStack, align 8
  %6 = tail call noundef zeroext i1 @_ZN2os16pd_commit_memoryEPcmb(ptr noundef %0, i64 noundef %1, i1 noundef zeroext %2) #28
  br i1 %6, label %7, label %22

7:                                                ; preds = %3
  %8 = load i32, ptr @_ZN10MemTracker15_tracking_levelE, align 4
  %9 = icmp eq i32 %8, 3
  br i1 %9, label %10, label %11

10:                                               ; preds = %7
  call void @_ZN15NativeCallStackC1Ei(ptr noundef nonnull align 8 dereferenceable(32) %5, i32 noundef 1) #28
  %.pre = load i32, ptr @_ZN10MemTracker15_tracking_levelE, align 4
  br label %11

11:                                               ; preds = %7, %10
  %12 = phi i32 [ %8, %7 ], [ %.pre, %10 ]
  call void @llvm.lifetime.start.p0(i64 1, ptr nonnull %4)
  %13 = icmp sgt i32 %12, 1
  %14 = icmp ne ptr %0, null
  %or.cond.i = and i1 %14, %13
  br i1 %or.cond.i, label %15, label %_ZN10MemTracker28record_virtual_memory_commitEPvmRK15NativeCallStack.exit

15:                                               ; preds = %11
  call void @_ZN14ThreadCriticalC1Ev(ptr noundef nonnull align 1 dereferenceable(1) %4) #28
  %16 = call noundef zeroext i1 @_ZN20VirtualMemoryTracker20add_committed_regionEPhmRK15NativeCallStack(ptr noundef nonnull %0, i64 noundef %1, ptr noundef nonnull align 8 dereferenceable(32) %5) #28
  call void @_ZN14ThreadCriticalD1Ev(ptr noundef nonnull align 1 dereferenceable(1) %4) #28
  br label %_ZN10MemTracker28record_virtual_memory_commitEPvmRK15NativeCallStack.exit

_ZN10MemTracker28record_virtual_memory_commitEPvmRK15NativeCallStack.exit: ; preds = %11, %15
  call void @llvm.lifetime.end.p0(i64 1, ptr nonnull %4)
  %17 = load volatile ptr, ptr getelementptr inbounds (i8, ptr @_ZN16LogTagSetMappingILN6LogTag4typeE105ELS1_78ELS1_0ELS1_0ELS1_0ELS1_0EE7_tagsetE, i64 56), align 8
  %.not16 = icmp eq ptr %17, null
  br i1 %.not16, label %28, label %18

18:                                               ; preds = %_ZN10MemTracker28record_virtual_memory_commitEPvmRK15NativeCallStack.exit
  %19 = ptrtoint ptr %0 to i64
  %20 = getelementptr inbounds i8, ptr %0, i64 %1
  %21 = ptrtoint ptr %20 to i64
  call void (ptr, ...) @_ZN7LogImplILN6LogTag4typeE105ELS1_78ELS1_0ELS1_0ELS1_0ELS1_0EE5writeILN8LogLevel4typeE2EEEvPKcz(ptr noundef nonnull @.str.71, i64 noundef %19, i64 noundef %21, i64 noundef %1)
  br label %28

22:                                               ; preds = %3
  %23 = load volatile ptr, ptr getelementptr inbounds (i8, ptr @_ZN16LogTagSetMappingILN6LogTag4typeE105ELS1_78ELS1_0ELS1_0ELS1_0ELS1_0EE7_tagsetE, i64 64), align 8
  %.not = icmp eq ptr %23, null
  br i1 %.not, label %28, label %24

24:                                               ; preds = %22
  %25 = ptrtoint ptr %0 to i64
  %26 = getelementptr inbounds i8, ptr %0, i64 %1
  %27 = ptrtoint ptr %26 to i64
  tail call void (ptr, ...) @_ZN7LogImplILN6LogTag4typeE105ELS1_78ELS1_0ELS1_0ELS1_0ELS1_0EE5writeILN8LogLevel4typeE3EEEvPKcz(ptr noundef nonnull @.str.72, i64 noundef %25, i64 noundef %27, i64 noundef %1)
  br label %28

28:                                               ; preds = %24, %22, %18, %_ZN10MemTracker28record_virtual_memory_commitEPvmRK15NativeCallStack.exit
  ret i1 %6
}